target datalayout = "e-m:e-p270:32:32-p271:32:32-p272:64:64-i64:64-i128:128-f80:128-n8:16:32:64-S128"
target triple = "x86_64-pc-linux-gnu"

%struct.DdManager = type { %struct.DdNode, ptr, ptr, ptr, ptr, ptr, ptr, ptr, i32, i32, double, double, double, i32, i32, i32, i32, i32, i32, ptr, ptr, %struct.DdSubtable, i32, i32, i32, i32, i32, i32, i32, double, i32, i32, i32, ptr, i64, double, i32, ptr, ptr, ptr, ptr, ptr, ptr, ptr, i32, ptr, ptr, ptr, ptr, ptr, ptr, i32, i32, i32, double, i32, i32, i32, i32, double, double, i32, i32, i32, i32, i32, i32, i32, i32, i32, ptr, ptr, i32, i32, i32, i32, i32, i32, ptr, ptr, ptr, ptr, ptr, ptr, ptr, ptr, i32, i64, i64, i64, i32, i64, i64, double, double, double, double, double, double, i32, ptr, ptr, i64 }
%struct.DdNode = type { i32, i32, ptr, %union.anon, i64 }
%union.anon = type { %struct.DdChildren }
%struct.DdChildren = type { ptr, ptr }
%struct.DdSubtable = type { ptr, i32, i32, i32, i32, i32, i32, i32, i32, i32, i32, i32 }

; Function Attrs: nounwind uwtable
define ptr @Cudd_OverApprox(ptr noundef %0, ptr noundef %1, i32 noundef %2, i32 noundef %3, i32 noundef %4, double noundef %5) #0 {
  %7 = alloca ptr, align 8
  %8 = alloca ptr, align 8
  %9 = alloca i32, align 4
  %10 = alloca i32, align 4
  %11 = alloca i32, align 4
  %12 = alloca double, align 8
  %13 = alloca ptr, align 8
  %14 = alloca ptr, align 8
  store ptr %0, ptr %7, align 8, !tbaa !3
  store ptr %1, ptr %8, align 8, !tbaa !8
  store i32 %2, ptr %9, align 4, !tbaa !10
  store i32 %3, ptr %10, align 4, !tbaa !10
  store i32 %4, ptr %11, align 4, !tbaa !10
  store double %5, ptr %12, align 8, !tbaa !12
  call void @llvm.lifetime.start.p0(i64 8, ptr %13) #7
  call void @llvm.lifetime.start.p0(i64 8, ptr %14) #7
  %15 = load ptr, ptr %8, align 8, !tbaa !8
  %16 = ptrtoint ptr %15 to i64
  %17 = xor i64 %16, 1
  %18 = inttoptr i64 %17 to ptr
  store ptr %18, ptr %14, align 8, !tbaa !8
  br label %19

19:                                               ; preds = %29, %6
  %20 = load ptr, ptr %7, align 8, !tbaa !3
  %21 = getelementptr inbounds nuw %struct.DdManager, ptr %20, i32 0, i32 55
  store i32 0, ptr %21, align 8, !tbaa !14
  %22 = load ptr, ptr %7, align 8, !tbaa !3
  %23 = load ptr, ptr %14, align 8, !tbaa !8
  %24 = load i32, ptr %9, align 4, !tbaa !10
  %25 = load i32, ptr %10, align 4, !tbaa !10
  %26 = load i32, ptr %11, align 4, !tbaa !10
  %27 = load double, ptr %12, align 8, !tbaa !12
  %28 = call ptr @cuddUnderApprox(ptr noundef %22, ptr noundef %23, i32 noundef %24, i32 noundef %25, i32 noundef %26, double noundef %27)
  store ptr %28, ptr %13, align 8, !tbaa !8
  br label %29

29:                                               ; preds = %19
  %30 = load ptr, ptr %7, align 8, !tbaa !3
  %31 = getelementptr inbounds nuw %struct.DdManager, ptr %30, i32 0, i32 55
  %32 = load i32, ptr %31, align 8, !tbaa !14
  %33 = icmp eq i32 %32, 1
  br i1 %33, label %19, label %34, !llvm.loop !42

34:                                               ; preds = %29
  %35 = load ptr, ptr %13, align 8, !tbaa !8
  %36 = ptrtoint ptr %35 to i64
  %37 = load ptr, ptr %13, align 8, !tbaa !8
  %38 = icmp ne ptr %37, null
  %39 = zext i1 %38 to i32
  %40 = sext i32 %39 to i64
  %41 = xor i64 %36, %40
  %42 = inttoptr i64 %41 to ptr
  call void @llvm.lifetime.end.p0(i64 8, ptr %14) #7
  call void @llvm.lifetime.end.p0(i64 8, ptr %13) #7
  ret ptr %42
}