; Function Attrs: nounwind uwtable
define ptr @Cudd_OverApprox(ptr noundef initializes((448, 452)) %0, ptr noundef %1, i32 noundef %2, i32 noundef %3, i32 noundef %4, double noundef %5) local_unnamed_addr #0 {
  %7 = ptrtoint ptr %1 to i64
  %8 = xor i64 %7, 1
  %9 = inttoptr i64 %8 to ptr
  %10 = getelementptr inbounds nuw i8, ptr %0, i64 448
  br label %11

11:                                               ; preds = %11, %6
  store i32 0, ptr %10, align 8, !tbaa !3
  %12 = tail call ptr @cuddUnderApprox(ptr noundef %0, ptr noundef %9, i32 noundef %2, i32 noundef %3, i32 noundef %4, double noundef %5)
  %13 = load i32, ptr %10, align 8, !tbaa !3
  %14 = icmp eq i32 %13, 1
  br i1 %14, label %11, label %15, !llvm.loop !58

15:                                               ; preds = %11
  %16 = ptrtoint ptr %12 to i64
  %17 = icmp ne ptr %12, null
  %18 = zext i1 %17 to i64
  %19 = xor i64 %18, %16
  %20 = inttoptr i64 %19 to ptr
  ret ptr %20
}